target datalayout = "e-m:e-p270:32:32-p271:32:32-p272:64:64-i64:64-i128:128-f80:128-n8:16:32:64-S128"
target triple = "x86_64-pc-linux-gnu"

%struct.DdManager = type { %struct.DdNode, ptr, ptr, ptr, ptr, ptr, ptr, ptr, i32, i32, double, double, double, i32, i32, i32, i32, i32, i32, ptr, ptr, %struct.DdSubtable, i32, i32, i32, i32, i32, i32, i32, double, i32, i32, i32, ptr, i64, double, i32, ptr, ptr, ptr, ptr, ptr, ptr, ptr, i32, ptr, ptr, ptr, ptr, ptr, ptr, i32, i32, i32, double, i32, i32, i32, i32, double, double, i32, i32, i32, i32, i32, i32, i32, i32, i32, ptr, ptr, i32, i32, i32, i32, i32, i32, ptr, ptr, ptr, ptr, ptr, ptr, ptr, ptr, i32, i64, i64, i64, i32, i64, i64, double, double, double, double, double, double, i32, ptr, ptr, i64 }
%struct.DdNode = type { i32, i32, ptr, %union.anon, i64 }
%union.anon = type { %struct.DdChildren }
%struct.DdChildren = type { ptr, ptr }
%struct.DdSubtable = type { ptr, i32, i32, i32, i32, i32, i32, i32, i32, i32, i32, i32 }

@background = internal global ptr null, align 8
@zero = internal global ptr null, align 8

; Function Attrs: nounwind uwtable
define double @Cudd_CountMinterm(ptr noundef %0, ptr noundef %1, i32 noundef %2) #0 {
  %4 = alloca double, align 8
  %5 = alloca ptr, align 8
  %6 = alloca ptr, align 8
  %7 = alloca i32, align 4
  %8 = alloca double, align 8
  %9 = alloca ptr, align 8
  %10 = alloca double, align 8
  %11 = alloca double, align 8
  store ptr %0, ptr %5, align 8
  store ptr %1, ptr %6, align 8
  store i32 %2, ptr %7, align 4
  %12 = load ptr, ptr %5, align 8
  %13 = getelementptr inbounds %struct.DdManager, ptr %12, i32 0, i32 5
  %14 = load ptr, ptr %13, align 8
  store ptr %14, ptr @background, align 8
  %15 = load ptr, ptr %5, align 8
  %16 = getelementptr inbounds %struct.DdManager, ptr %15, i32 0, i32 1
  %17 = load ptr, ptr %16, align 8
  %18 = ptrtoint ptr %17 to i64
  %19 = xor i64 %18, 1
  %20 = inttoptr i64 %19 to ptr
  store ptr %20, ptr @zero, align 8
  %21 = load i32, ptr %7, align 4
  %22 = sitofp i32 %21 to double
  %23 = call double @pow(double noundef 2.000000e+00, double noundef %22) #6
  store double %23, ptr %8, align 8
  %24 = load ptr, ptr %5, align 8
  %25 = call ptr @cuddHashTableInit(ptr noundef %24, i32 noundef 1, i32 noundef 2)
  store ptr %25, ptr %9, align 8
  %26 = load ptr, ptr %9, align 8
  %27 = icmp eq ptr %26, null
  br i1 %27, label %28, label %29

28:                                               ; preds = %3
  store double -1.000000e+00, ptr %4, align 8
  br label %41

29:                                               ; preds = %3
  %30 = load ptr, ptr %5, align 8
  %31 = call double @Cudd_ReadEpsilon(ptr noundef %30)
  store double %31, ptr %11, align 8
  %32 = load ptr, ptr %5, align 8
  call void @Cudd_SetEpsilon(ptr noundef %32, double noundef 0.000000e+00)
  %33 = load ptr, ptr %6, align 8
  %34 = load double, ptr %8, align 8
  %35 = load ptr, ptr %9, align 8
  %36 = call double @ddCountMintermAux(ptr noundef %33, double noundef %34, ptr noundef %35)
  store double %36, ptr %10, align 8
  %37 = load ptr, ptr %9, align 8
  call void @cuddHashTableQuit(ptr noundef %37)
  %38 = load ptr, ptr %5, align 8
  %39 = load double, ptr %11, align 8
  call void @Cudd_SetEpsilon(ptr noundef %38, double noundef %39)
  %40 = load double, ptr %10, align 8
  store double %40, ptr %4, align 8
  br label %41

41:                                               ; preds = %29, %28
  %42 = load double, ptr %4, align 8
  ret double %42
}