; Function Attrs: nounwind uwtable
define double @Cudd_CountMinterm(ptr noundef %0, ptr noundef %1, i32 noundef %2) local_unnamed_addr #0 {
  %4 = getelementptr inbounds nuw i8, ptr %0, i64 72
  %5 = load ptr, ptr %4, align 8
  store ptr %5, ptr @background, align 8
  %6 = getelementptr inbounds nuw i8, ptr %0, i64 40
  %7 = load ptr, ptr %6, align 8
  %8 = ptrtoint ptr %7 to i64
  %9 = xor i64 %8, 1
  %10 = inttoptr i64 %9 to ptr
  store ptr %10, ptr @zero, align 8
  %ldexp = tail call double @ldexp(double 1.000000e+00, i32 %2) #23
  %11 = tail call ptr @cuddHashTableInit(ptr noundef %0, i32 noundef 1, i32 noundef 2) #23
  %12 = icmp eq ptr %11, null
  br i1 %12, label %16, label %13

13:                                               ; preds = %3
  %14 = tail call double @Cudd_ReadEpsilon(ptr noundef nonnull %0) #23
  tail call void @Cudd_SetEpsilon(ptr noundef nonnull %0, double noundef 0.000000e+00) #23
  %15 = tail call fastcc double @ddCountMintermAux(ptr noundef %1, double noundef %ldexp, ptr noundef %11)
  tail call void @cuddHashTableQuit(ptr noundef nonnull %11) #23
  tail call void @Cudd_SetEpsilon(ptr noundef nonnull %0, double noundef %14) #23
  br label %16

16:                                               ; preds = %3, %13
  %.0 = phi double [ %15, %13 ], [ -1.000000e+00, %3 ]
  ret double %.0
}